target datalayout = "e-m:e-p270:32:32-p271:32:32-p272:64:64-i64:64-i128:128-f80:128-n8:16:32:64-S128"
target triple = "x86_64-pc-linux-gnu"

%struct.CPpmd8 = type { ptr, ptr, ptr, i32, i32, i32, i32, i32, i32, i32, i32, ptr, ptr, ptr, ptr, ptr, i32, i32, i32, i32, i32, %union.anon, [38 x i8], [128 x i8], [38 x i32], [38 x i32], [256 x i8], [260 x i8], %struct.CPpmd_See, [24 x [32 x %struct.CPpmd_See]], [25 x [64 x i16]] }
%union.anon = type { ptr }
%struct.CPpmd_See = type { i16, i8, i8 }
%struct.CPpmd8_Context_ = type { i8, i8, i16, i32, i32 }
%struct.CPpmd_State = type { i8, i8, i16, i16 }

@kInitBinEsc = internal constant [8 x i16] [i16 15581, i16 7999, i16 22975, i16 18675, i16 25761, i16 23228, i16 26162, i16 24657], align 16

; Function Attrs: nounwind uwtable
define internal void @SetSuccessor(ptr noundef %0, i32 noundef %1) #0 {
  %3 = alloca ptr, align 8
  %4 = alloca i32, align 4
  store ptr %0, ptr %3, align 8, !tbaa !4
  store i32 %1, ptr %4, align 4, !tbaa !15
  %5 = load i32, ptr %4, align 4, !tbaa !15
  %6 = and i32 %5, 65535
  %7 = trunc i32 %6 to i16
  %8 = load ptr, ptr %3, align 8, !tbaa !4
  %9 = getelementptr inbounds nuw %struct.CPpmd_State, ptr %8, i32 0, i32 2
  store i16 %7, ptr %9, align 2, !tbaa !72
  %10 = load i32, ptr %4, align 4, !tbaa !15
  %11 = lshr i32 %10, 16
  %12 = and i32 %11, 65535
  %13 = trunc i32 %12 to i16
  %14 = load ptr, ptr %3, align 8, !tbaa !4
  %15 = getelementptr inbounds nuw %struct.CPpmd_State, ptr %14, i32 0, i32 3
  store i16 %13, ptr %15, align 2, !tbaa !73
  ret void
}

; Function Attrs: nounwind uwtable
define internal void @RestartModel(ptr noundef %0) #0 {
  %2 = alloca ptr, align 8
  %3 = alloca i32, align 4
  %4 = alloca i32, align 4
  %5 = alloca i32, align 4
  %6 = alloca i32, align 4
  %7 = alloca ptr, align 8
  %8 = alloca i16, align 2
  %9 = alloca ptr, align 8
  %10 = alloca ptr, align 8
  store ptr %0, ptr %2, align 8, !tbaa !4
  call void @llvm.lifetime.start.p0(i64 4, ptr %3) #6
  call void @llvm.lifetime.start.p0(i64 4, ptr %4) #6
  call void @llvm.lifetime.start.p0(i64 4, ptr %5) #6
  call void @llvm.lifetime.start.p0(i64 4, ptr %6) #6
  %11 = load ptr, ptr %2, align 8, !tbaa !4
  %12 = getelementptr inbounds nuw %struct.CPpmd8, ptr %11, i32 0, i32 24
  %13 = getelementptr inbounds [38 x i32], ptr %12, i64 0, i64 0
  call void @llvm.memset.p0.i64(ptr align 8 %13, i8 0, i64 152, i1 false)
  %14 = load ptr, ptr %2, align 8, !tbaa !4
  %15 = getelementptr inbounds nuw %struct.CPpmd8, ptr %14, i32 0, i32 25
  %16 = getelementptr inbounds [38 x i32], ptr %15, i64 0, i64 0
  call void @llvm.memset.p0.i64(ptr align 8 %16, i8 0, i64 152, i1 false)
  %17 = load ptr, ptr %2, align 8, !tbaa !4
  %18 = getelementptr inbounds nuw %struct.CPpmd8, ptr %17, i32 0, i32 11
  %19 = load ptr, ptr %18, align 8, !tbaa !8
  %20 = load ptr, ptr %2, align 8, !tbaa !4
  %21 = getelementptr inbounds nuw %struct.CPpmd8, ptr %20, i32 0, i32 16
  %22 = load i32, ptr %21, align 8, !tbaa !23
  %23 = zext i32 %22 to i64
  %24 = getelementptr inbounds nuw i8, ptr %19, i64 %23
  %25 = getelementptr inbounds i8, ptr %24, i64 0
  %26 = load ptr, ptr %2, align 8, !tbaa !4
  %27 = getelementptr inbounds nuw %struct.CPpmd8, ptr %26, i32 0, i32 14
  store ptr %25, ptr %27, align 8, !tbaa !29
  %28 = load ptr, ptr %2, align 8, !tbaa !4
  %29 = getelementptr inbounds nuw %struct.CPpmd8, ptr %28, i32 0, i32 14
  %30 = load ptr, ptr %29, align 8, !tbaa !29
  %31 = load ptr, ptr %2, align 8, !tbaa !4
  %32 = getelementptr inbounds nuw %struct.CPpmd8, ptr %31, i32 0, i32 9
  %33 = load i32, ptr %32, align 8, !tbaa !22
  %34 = zext i32 %33 to i64
  %35 = getelementptr inbounds nuw i8, ptr %30, i64 %34
  %36 = load ptr, ptr %2, align 8, !tbaa !4
  %37 = getelementptr inbounds nuw %struct.CPpmd8, ptr %36, i32 0, i32 13
  store ptr %35, ptr %37, align 8, !tbaa !30
  %38 = load ptr, ptr %2, align 8, !tbaa !4
  %39 = getelementptr inbounds nuw %struct.CPpmd8, ptr %38, i32 0, i32 13
  %40 = load ptr, ptr %39, align 8, !tbaa !30
  %41 = load ptr, ptr %2, align 8, !tbaa !4
  %42 = getelementptr inbounds nuw %struct.CPpmd8, ptr %41, i32 0, i32 9
  %43 = load i32, ptr %42, align 8, !tbaa !22
  %44 = udiv i32 %43, 8
  %45 = udiv i32 %44, 12
  %46 = mul i32 %45, 7
  %47 = mul i32 %46, 12
  %48 = zext i32 %47 to i64
  %49 = sub i64 0, %48
  %50 = getelementptr inbounds i8, ptr %40, i64 %49
  %51 = load ptr, ptr %2, align 8, !tbaa !4
  %52 = getelementptr inbounds nuw %struct.CPpmd8, ptr %51, i32 0, i32 15
  store ptr %50, ptr %52, align 8, !tbaa !31
  %53 = load ptr, ptr %2, align 8, !tbaa !4
  %54 = getelementptr inbounds nuw %struct.CPpmd8, ptr %53, i32 0, i32 12
  store ptr %50, ptr %54, align 8, !tbaa !32
  %55 = load ptr, ptr %2, align 8, !tbaa !4
  %56 = getelementptr inbounds nuw %struct.CPpmd8, ptr %55, i32 0, i32 10
  store i32 0, ptr %56, align 4, !tbaa !33
  %57 = load ptr, ptr %2, align 8, !tbaa !4
  %58 = getelementptr inbounds nuw %struct.CPpmd8, ptr %57, i32 0, i32 6
  %59 = load i32, ptr %58, align 4, !tbaa !24
  %60 = load ptr, ptr %2, align 8, !tbaa !4
  %61 = getelementptr inbounds nuw %struct.CPpmd8, ptr %60, i32 0, i32 3
  store i32 %59, ptr %61, align 8, !tbaa !34
  %62 = load ptr, ptr %2, align 8, !tbaa !4
  %63 = getelementptr inbounds nuw %struct.CPpmd8, ptr %62, i32 0, i32 6
  %64 = load i32, ptr %63, align 4, !tbaa !24
  %65 = icmp ult i32 %64, 12
  br i1 %65, label %66, label %70

66:                                               ; preds = %1
  %67 = load ptr, ptr %2, align 8, !tbaa !4
  %68 = getelementptr inbounds nuw %struct.CPpmd8, ptr %67, i32 0, i32 6
  %69 = load i32, ptr %68, align 4, !tbaa !24
  br label %71

70:                                               ; preds = %1
  br label %71

71:                                               ; preds = %70, %66
  %72 = phi i32 [ %69, %66 ], [ 12, %70 ]
  %73 = sub nsw i32 0, %72
  %74 = sub nsw i32 %73, 1
  %75 = load ptr, ptr %2, align 8, !tbaa !4
  %76 = getelementptr inbounds nuw %struct.CPpmd8, ptr %75, i32 0, i32 8
  store i32 %74, ptr %76, align 4, !tbaa !35
  %77 = load ptr, ptr %2, align 8, !tbaa !4
  %78 = getelementptr inbounds nuw %struct.CPpmd8, ptr %77, i32 0, i32 7
  store i32 %74, ptr %78, align 8, !tbaa !36
  %79 = load ptr, ptr %2, align 8, !tbaa !4
  %80 = getelementptr inbounds nuw %struct.CPpmd8, ptr %79, i32 0, i32 5
  store i32 0, ptr %80, align 8, !tbaa !37
  %81 = load ptr, ptr %2, align 8, !tbaa !4
  %82 = getelementptr inbounds nuw %struct.CPpmd8, ptr %81, i32 0, i32 13
  %83 = load ptr, ptr %82, align 8, !tbaa !30
  %84 = getelementptr inbounds i8, ptr %83, i64 -12
  store ptr %84, ptr %82, align 8, !tbaa !30
  %85 = load ptr, ptr %2, align 8, !tbaa !4
  %86 = getelementptr inbounds nuw %struct.CPpmd8, ptr %85, i32 0, i32 1
  store ptr %84, ptr %86, align 8, !tbaa !38
  %87 = load ptr, ptr %2, align 8, !tbaa !4
  %88 = getelementptr inbounds nuw %struct.CPpmd8, ptr %87, i32 0, i32 0
  store ptr %84, ptr %88, align 8, !tbaa !39
  %89 = load ptr, ptr %2, align 8, !tbaa !4
  %90 = getelementptr inbounds nuw %struct.CPpmd8, ptr %89, i32 0, i32 0
  %91 = load ptr, ptr %90, align 8, !tbaa !39
  %92 = getelementptr inbounds nuw %struct.CPpmd8_Context_, ptr %91, i32 0, i32 4
  store i32 0, ptr %92, align 1, !tbaa !40
  %93 = load ptr, ptr %2, align 8, !tbaa !4
  %94 = getelementptr inbounds nuw %struct.CPpmd8, ptr %93, i32 0, i32 0
  %95 = load ptr, ptr %94, align 8, !tbaa !39
  %96 = getelementptr inbounds nuw %struct.CPpmd8_Context_, ptr %95, i32 0, i32 0
  store i8 -1, ptr %96, align 1, !tbaa !42
  %97 = load ptr, ptr %2, align 8, !tbaa !4
  %98 = getelementptr inbounds nuw %struct.CPpmd8, ptr %97, i32 0, i32 0
  %99 = load ptr, ptr %98, align 8, !tbaa !39
  %100 = getelementptr inbounds nuw %struct.CPpmd8_Context_, ptr %99, i32 0, i32 1
  store i8 0, ptr %100, align 1, !tbaa !43
  %101 = load ptr, ptr %2, align 8, !tbaa !4
  %102 = getelementptr inbounds nuw %struct.CPpmd8, ptr %101, i32 0, i32 0
  %103 = load ptr, ptr %102, align 8, !tbaa !39
  %104 = getelementptr inbounds nuw %struct.CPpmd8_Context_, ptr %103, i32 0, i32 2
  store i16 257, ptr %104, align 1, !tbaa !44
  %105 = load ptr, ptr %2, align 8, !tbaa !4
  %106 = getelementptr inbounds nuw %struct.CPpmd8, ptr %105, i32 0, i32 12
  %107 = load ptr, ptr %106, align 8, !tbaa !32
  %108 = load ptr, ptr %2, align 8, !tbaa !4
  %109 = getelementptr inbounds nuw %struct.CPpmd8, ptr %108, i32 0, i32 2
  store ptr %107, ptr %109, align 8, !tbaa !45
  %110 = load ptr, ptr %2, align 8, !tbaa !4
  %111 = getelementptr inbounds nuw %struct.CPpmd8, ptr %110, i32 0, i32 12
  %112 = load ptr, ptr %111, align 8, !tbaa !32
  %113 = getelementptr inbounds nuw i8, ptr %112, i64 1536
  store ptr %113, ptr %111, align 8, !tbaa !32
  %114 = load ptr, ptr %2, align 8, !tbaa !4
  %115 = getelementptr inbounds nuw %struct.CPpmd8, ptr %114, i32 0, i32 2
  %116 = load ptr, ptr %115, align 8, !tbaa !45
  %117 = load ptr, ptr %2, align 8, !tbaa !4
  %118 = getelementptr inbounds nuw %struct.CPpmd8, ptr %117, i32 0, i32 11
  %119 = load ptr, ptr %118, align 8, !tbaa !8
  %120 = ptrtoint ptr %116 to i64
  %121 = ptrtoint ptr %119 to i64
  %122 = sub i64 %120, %121
  %123 = trunc i64 %122 to i32
  %124 = load ptr, ptr %2, align 8, !tbaa !4
  %125 = getelementptr inbounds nuw %struct.CPpmd8, ptr %124, i32 0, i32 0
  %126 = load ptr, ptr %125, align 8, !tbaa !39
  %127 = getelementptr inbounds nuw %struct.CPpmd8_Context_, ptr %126, i32 0, i32 3
  store i32 %123, ptr %127, align 1, !tbaa !46
  store i32 0, ptr %3, align 4, !tbaa !15
  br label %128

128:                                              ; preds = %145, %71
  %129 = load i32, ptr %3, align 4, !tbaa !15
  %130 = icmp ult i32 %129, 256
  br i1 %130, label %131, label %148

131:                                              ; preds = %128
  call void @llvm.lifetime.start.p0(i64 8, ptr %7) #6
  %132 = load ptr, ptr %2, align 8, !tbaa !4
  %133 = getelementptr inbounds nuw %struct.CPpmd8, ptr %132, i32 0, i32 2
  %134 = load ptr, ptr %133, align 8, !tbaa !45
  %135 = load i32, ptr %3, align 4, !tbaa !15
  %136 = zext i32 %135 to i64
  %137 = getelementptr inbounds nuw %struct.CPpmd_State, ptr %134, i64 %136
  store ptr %137, ptr %7, align 8, !tbaa !4
  %138 = load i32, ptr %3, align 4, !tbaa !15
  %139 = trunc i32 %138 to i8
  %140 = load ptr, ptr %7, align 8, !tbaa !4
  %141 = getelementptr inbounds nuw %struct.CPpmd_State, ptr %140, i32 0, i32 0
  store i8 %139, ptr %141, align 2, !tbaa !47
  %142 = load ptr, ptr %7, align 8, !tbaa !4
  %143 = getelementptr inbounds nuw %struct.CPpmd_State, ptr %142, i32 0, i32 1
  store i8 1, ptr %143, align 1, !tbaa !49
  %144 = load ptr, ptr %7, align 8, !tbaa !4
  call void @SetSuccessor(ptr noundef %144, i32 noundef 0)
  call void @llvm.lifetime.end.p0(i64 8, ptr %7) #6
  br label %145

145:                                              ; preds = %131
  %146 = load i32, ptr %3, align 4, !tbaa !15
  %147 = add i32 %146, 1
  store i32 %147, ptr %3, align 4, !tbaa !15
  br label %128, !llvm.loop !50

148:                                              ; preds = %128
  store i32 0, ptr %5, align 4, !tbaa !15
  store i32 0, ptr %3, align 4, !tbaa !15
  br label %149

149:                                              ; preds = %207, %148
  %150 = load i32, ptr %5, align 4, !tbaa !15
  %151 = icmp ult i32 %150, 25
  br i1 %151, label %152, label %210

152:                                              ; preds = %149
  br label %153

153:                                              ; preds = %163, %152
  %154 = load ptr, ptr %2, align 8, !tbaa !4
  %155 = getelementptr inbounds nuw %struct.CPpmd8, ptr %154, i32 0, i32 27
  %156 = load i32, ptr %3, align 4, !tbaa !15
  %157 = zext i32 %156 to i64
  %158 = getelementptr inbounds nuw [260 x i8], ptr %155, i64 0, i64 %157
  %159 = load i8, ptr %158, align 1, !tbaa !16
  %160 = zext i8 %159 to i32
  %161 = load i32, ptr %5, align 4, !tbaa !15
  %162 = icmp eq i32 %160, %161
  br i1 %162, label %163, label %166

163:                                              ; preds = %153
  %164 = load i32, ptr %3, align 4, !tbaa !15
  %165 = add i32 %164, 1
  store i32 %165, ptr %3, align 4, !tbaa !15
  br label %153, !llvm.loop !51

166:                                              ; preds = %153
  store i32 0, ptr %4, align 4, !tbaa !15
  br label %167

167:                                              ; preds = %203, %166
  %168 = load i32, ptr %4, align 4, !tbaa !15
  %169 = icmp ult i32 %168, 8
  br i1 %169, label %170, label %206

170:                                              ; preds = %167
  call void @llvm.lifetime.start.p0(i64 2, ptr %8) #6
  %171 = load i32, ptr %4, align 4, !tbaa !15
  %172 = zext i32 %171 to i64
  %173 = getelementptr inbounds nuw [8 x i16], ptr @kInitBinEsc, i64 0, i64 %172
  %174 = load i16, ptr %173, align 2, !tbaa !52
  %175 = zext i16 %174 to i32
  %176 = load i32, ptr %3, align 4, !tbaa !15
  %177 = add i32 %176, 1
  %178 = udiv i32 %175, %177
  %179 = sub i32 16384, %178
  %180 = trunc i32 %179 to i16
  store i16 %180, ptr %8, align 2, !tbaa !52
  call void @llvm.lifetime.start.p0(i64 8, ptr %9) #6
  %181 = load ptr, ptr %2, align 8, !tbaa !4
  %182 = getelementptr inbounds nuw %struct.CPpmd8, ptr %181, i32 0, i32 30
  %183 = load i32, ptr %5, align 4, !tbaa !15
  %184 = zext i32 %183 to i64
  %185 = getelementptr inbounds nuw [25 x [64 x i16]], ptr %182, i64 0, i64 %184
  %186 = getelementptr inbounds [64 x i16], ptr %185, i64 0, i64 0
  %187 = load i32, ptr %4, align 4, !tbaa !15
  %188 = zext i32 %187 to i64
  %189 = getelementptr inbounds nuw i16, ptr %186, i64 %188
  store ptr %189, ptr %9, align 8, !tbaa !53
  store i32 0, ptr %6, align 4, !tbaa !15
  br label %190

190:                                              ; preds = %199, %170
  %191 = load i32, ptr %6, align 4, !tbaa !15
  %192 = icmp ult i32 %191, 64
  br i1 %192, label %193, label %202

193:                                              ; preds = %190
  %194 = load i16, ptr %8, align 2, !tbaa !52
  %195 = load ptr, ptr %9, align 8, !tbaa !53
  %196 = load i32, ptr %6, align 4, !tbaa !15
  %197 = zext i32 %196 to i64
  %198 = getelementptr inbounds nuw i16, ptr %195, i64 %197
  store i16 %194, ptr %198, align 2, !tbaa !52
  br label %199

199:                                              ; preds = %193
  %200 = load i32, ptr %6, align 4, !tbaa !15
  %201 = add i32 %200, 8
  store i32 %201, ptr %6, align 4, !tbaa !15
  br label %190, !llvm.loop !55

202:                                              ; preds = %190
  call void @llvm.lifetime.end.p0(i64 8, ptr %9) #6
  call void @llvm.lifetime.end.p0(i64 2, ptr %8) #6
  br label %203

203:                                              ; preds = %202
  %204 = load i32, ptr %4, align 4, !tbaa !15
  %205 = add i32 %204, 1
  store i32 %205, ptr %4, align 4, !tbaa !15
  br label %167, !llvm.loop !56

206:                                              ; preds = %167
  br label %207

207:                                              ; preds = %206
  %208 = load i32, ptr %5, align 4, !tbaa !15
  %209 = add i32 %208, 1
  store i32 %209, ptr %5, align 4, !tbaa !15
  br label %149, !llvm.loop !57

210:                                              ; preds = %149
  store i32 0, ptr %5, align 4, !tbaa !15
  store i32 0, ptr %3, align 4, !tbaa !15
  br label %211

211:                                              ; preds = %258, %210
  %212 = load i32, ptr %5, align 4, !tbaa !15
  %213 = icmp ult i32 %212, 24
  br i1 %213, label %214, label %261

214:                                              ; preds = %211
  br label %215

215:                                              ; preds = %227, %214
  %216 = load ptr, ptr %2, align 8, !tbaa !4
  %217 = getelementptr inbounds nuw %struct.CPpmd8, ptr %216, i32 0, i32 27
  %218 = load i32, ptr %3, align 4, !tbaa !15
  %219 = add i32 %218, 3
  %220 = zext i32 %219 to i64
  %221 = getelementptr inbounds nuw [260 x i8], ptr %217, i64 0, i64 %220
  %222 = load i8, ptr %221, align 1, !tbaa !16
  %223 = zext i8 %222 to i32
  %224 = load i32, ptr %5, align 4, !tbaa !15
  %225 = add i32 %224, 3
  %226 = icmp eq i32 %223, %225
  br i1 %226, label %227, label %230

227:                                              ; preds = %215
  %228 = load i32, ptr %3, align 4, !tbaa !15
  %229 = add i32 %228, 1
  store i32 %229, ptr %3, align 4, !tbaa !15
  br label %215, !llvm.loop !58

230:                                              ; preds = %215
  store i32 0, ptr %4, align 4, !tbaa !15
  br label %231

231:                                              ; preds = %254, %230
  %232 = load i32, ptr %4, align 4, !tbaa !15
  %233 = icmp ult i32 %232, 32
  br i1 %233, label %234, label %257

234:                                              ; preds = %231
  call void @llvm.lifetime.start.p0(i64 8, ptr %10) #6
  %235 = load ptr, ptr %2, align 8, !tbaa !4
  %236 = getelementptr inbounds nuw %struct.CPpmd8, ptr %235, i32 0, i32 29
  %237 = load i32, ptr %5, align 4, !tbaa !15
  %238 = zext i32 %237 to i64
  %239 = getelementptr inbounds nuw [24 x [32 x %struct.CPpmd_See]], ptr %236, i64 0, i64 %238
  %240 = load i32, ptr %4, align 4, !tbaa !15
  %241 = zext i32 %240 to i64
  %242 = getelementptr inbounds nuw [32 x %struct.CPpmd_See], ptr %239, i64 0, i64 %241
  store ptr %242, ptr %10, align 8, !tbaa !4
  %243 = load i32, ptr %3, align 4, !tbaa !15
  %244 = mul i32 2, %243
  %245 = add i32 %244, 5
  %246 = load ptr, ptr %10, align 8, !tbaa !4
  %247 = getelementptr inbounds nuw %struct.CPpmd_See, ptr %246, i32 0, i32 1
  store i8 3, ptr %247, align 2, !tbaa !59
  %248 = shl i32 %245, 3
  %249 = trunc i32 %248 to i16
  %250 = load ptr, ptr %10, align 8, !tbaa !4
  %251 = getelementptr inbounds nuw %struct.CPpmd_See, ptr %250, i32 0, i32 0
  store i16 %249, ptr %251, align 2, !tbaa !60
  %252 = load ptr, ptr %10, align 8, !tbaa !4
  %253 = getelementptr inbounds nuw %struct.CPpmd_See, ptr %252, i32 0, i32 2
  store i8 7, ptr %253, align 1, !tbaa !61
  call void @llvm.lifetime.end.p0(i64 8, ptr %10) #6
  br label %254

254:                                              ; preds = %234
  %255 = load i32, ptr %4, align 4, !tbaa !15
  %256 = add i32 %255, 1
  store i32 %256, ptr %4, align 4, !tbaa !15
  br label %231, !llvm.loop !62

257:                                              ; preds = %231
  br label %258

258:                                              ; preds = %257
  %259 = load i32, ptr %5, align 4, !tbaa !15
  %260 = add i32 %259, 1
  store i32 %260, ptr %5, align 4, !tbaa !15
  br label %211, !llvm.loop !63

261:                                              ; preds = %211
  call void @llvm.lifetime.end.p0(i64 4, ptr %6) #6
  call void @llvm.lifetime.end.p0(i64 4, ptr %5) #6
  call void @llvm.lifetime.end.p0(i64 4, ptr %4) #6
  call void @llvm.lifetime.end.p0(i64 4, ptr %3) #6
  ret void
}