; Function Attrs: nofree norecurse nosync nounwind memory(write, argmem: readwrite, inaccessiblemem: none) uwtable
define internal fastcc void @RestartModel(ptr noundef captures(none) initializes((0, 28), (32, 36), (40, 48), (52, 56), (64, 96), (296, 600)) %0) unnamed_addr #6 {
  %2 = getelementptr inbounds nuw i8, ptr %0, i64 296
  %3 = getelementptr inbounds nuw i8, ptr %0, i64 56
  tail call void @llvm.memset.p0.i64(ptr noundef nonnull align 8 dereferenceable(304) %2, i8 0, i64 304, i1 false)
  %4 = load ptr, ptr %3, align 8, !tbaa !4
  %5 = getelementptr inbounds nuw i8, ptr %0, i64 96
  %6 = load i32, ptr %5, align 8, !tbaa !21
  %7 = zext i32 %6 to i64
  %8 = getelementptr inbounds nuw i8, ptr %4, i64 %7
  %9 = getelementptr inbounds nuw i8, ptr %0, i64 80
  store ptr %8, ptr %9, align 8, !tbaa !27
  %10 = getelementptr inbounds nuw i8, ptr %0, i64 48
  %11 = load i32, ptr %10, align 8, !tbaa !20
  %12 = zext i32 %11 to i64
  %13 = getelementptr inbounds nuw i8, ptr %8, i64 %12
  %14 = getelementptr inbounds nuw i8, ptr %0, i64 72
  %15 = udiv i32 %11, 96
  %16 = mul nuw i32 %15, 84
  %17 = zext i32 %16 to i64
  %18 = sub nsw i64 0, %17
  %19 = getelementptr inbounds i8, ptr %13, i64 %18
  %20 = getelementptr inbounds nuw i8, ptr %0, i64 88
  store ptr %19, ptr %20, align 8, !tbaa !28
  %21 = getelementptr inbounds nuw i8, ptr %0, i64 64
  %22 = getelementptr inbounds nuw i8, ptr %0, i64 52
  store i32 0, ptr %22, align 4, !tbaa !29
  %23 = getelementptr inbounds nuw i8, ptr %0, i64 36
  %24 = load i32, ptr %23, align 4, !tbaa !22
  %25 = getelementptr inbounds nuw i8, ptr %0, i64 24
  store i32 %24, ptr %25, align 8, !tbaa !30
  %26 = tail call i32 @llvm.umin.i32(i32 %24, i32 12)
  %spec.select = xor i32 %26, -1
  %27 = getelementptr inbounds nuw i8, ptr %0, i64 44
  store i32 %spec.select, ptr %27, align 4, !tbaa !31
  %28 = getelementptr inbounds nuw i8, ptr %0, i64 40
  store i32 %spec.select, ptr %28, align 8, !tbaa !32
  %29 = getelementptr inbounds nuw i8, ptr %0, i64 32
  store i32 0, ptr %29, align 8, !tbaa !33
  %30 = getelementptr inbounds i8, ptr %13, i64 -12
  store ptr %30, ptr %14, align 8, !tbaa !34
  %31 = getelementptr inbounds nuw i8, ptr %0, i64 8
  store ptr %30, ptr %31, align 8, !tbaa !35
  store ptr %30, ptr %0, align 8, !tbaa !36
  %32 = getelementptr inbounds i8, ptr %13, i64 -4
  store i32 0, ptr %32, align 1, !tbaa !37
  store i8 -1, ptr %30, align 1, !tbaa !39
  %33 = getelementptr inbounds i8, ptr %13, i64 -11
  store i8 0, ptr %33, align 1, !tbaa !40
  %34 = getelementptr inbounds i8, ptr %13, i64 -10
  store i16 257, ptr %34, align 1, !tbaa !41
  %35 = getelementptr inbounds nuw i8, ptr %0, i64 16
  store ptr %19, ptr %35, align 8, !tbaa !42
  %36 = getelementptr inbounds nuw i8, ptr %19, i64 1536
  store ptr %36, ptr %21, align 8, !tbaa !43
  %37 = ptrtoint ptr %19 to i64
  %38 = ptrtoint ptr %4 to i64
  %39 = sub i64 %37, %38
  %40 = trunc i64 %39 to i32
  %41 = getelementptr inbounds i8, ptr %13, i64 -8
  store i32 %40, ptr %41, align 1, !tbaa !44
  br label %44

.preheader83:                                     ; preds = %44
  %42 = getelementptr inbounds nuw i8, ptr %0, i64 856
  %43 = getelementptr inbounds nuw i8, ptr %0, i64 4192
  br label %.preheader82

44:                                               ; preds = %1, %44
  %indvars.iv = phi i64 [ 0, %1 ], [ %indvars.iv.next, %44 ]
  %45 = getelementptr inbounds nuw %struct.CPpmd_State, ptr %19, i64 %indvars.iv
  %46 = trunc i64 %indvars.iv to i8
  store i8 %46, ptr %45, align 2, !tbaa !45
  %47 = getelementptr inbounds nuw i8, ptr %45, i64 1
  store i8 1, ptr %47, align 1, !tbaa !47
  %48 = getelementptr inbounds nuw i8, ptr %45, i64 2
  store i16 0, ptr %48, align 2, !tbaa !48
  %49 = getelementptr inbounds nuw i8, ptr %45, i64 4
  store i16 0, ptr %49, align 2, !tbaa !49
  %indvars.iv.next = add nuw nsw i64 %indvars.iv, 1
  %exitcond.not = icmp eq i64 %indvars.iv.next, 256
  br i1 %exitcond.not, label %.preheader83, label %44, !llvm.loop !50

.preheader82:                                     ; preds = %.preheader83, %71
  %indvars.iv100 = phi i64 [ 0, %.preheader83 ], [ %indvars.iv.next101, %71 ]
  %.188 = phi i32 [ 0, %.preheader83 ], [ %.2, %71 ]
  br label %51

.preheader80:                                     ; preds = %71
  %50 = getelementptr inbounds nuw i8, ptr %0, i64 1120
  br label %.preheader79

51:                                               ; preds = %51, %.preheader82
  %.2 = phi i32 [ %57, %51 ], [ %.188, %.preheader82 ]
  %52 = zext i32 %.2 to i64
  %53 = getelementptr inbounds nuw [260 x i8], ptr %42, i64 0, i64 %52
  %54 = load i8, ptr %53, align 1, !tbaa !14
  %55 = zext i8 %54 to i64
  %56 = icmp eq i64 %indvars.iv100, %55
  %57 = add i32 %.2, 1
  br i1 %56, label %51, label %.preheader81, !llvm.loop !51

.preheader81:                                     ; preds = %51
  %58 = getelementptr inbounds nuw [25 x [64 x i16]], ptr %43, i64 0, i64 %indvars.iv100
  br label %59

59:                                               ; preds = %.preheader81, %70
  %indvars.iv96 = phi i64 [ 0, %.preheader81 ], [ %indvars.iv.next97, %70 ]
  %60 = getelementptr inbounds nuw [8 x i16], ptr @kInitBinEsc, i64 0, i64 %indvars.iv96
  %61 = load i16, ptr %60, align 2, !tbaa !52
  %62 = zext i16 %61 to i32
  %63 = udiv i32 %62, %57
  %64 = trunc nuw i32 %63 to i16
  %65 = sub i16 16384, %64
  %66 = getelementptr inbounds nuw i16, ptr %58, i64 %indvars.iv96
  br label %67

67:                                               ; preds = %59, %67
  %indvars.iv93 = phi i64 [ 0, %59 ], [ %indvars.iv.next94, %67 ]
  %68 = getelementptr inbounds nuw i16, ptr %66, i64 %indvars.iv93
  store i16 %65, ptr %68, align 2, !tbaa !52
  %indvars.iv.next94 = add nuw nsw i64 %indvars.iv93, 8
  %69 = icmp samesign ult i64 %indvars.iv93, 56
  br i1 %69, label %67, label %70, !llvm.loop !53

70:                                               ; preds = %67
  %indvars.iv.next97 = add nuw nsw i64 %indvars.iv96, 1
  %exitcond99.not = icmp eq i64 %indvars.iv.next97, 8
  br i1 %exitcond99.not, label %71, label %59, !llvm.loop !54

71:                                               ; preds = %70
  %indvars.iv.next101 = add nuw nsw i64 %indvars.iv100, 1
  %exitcond103.not = icmp eq i64 %indvars.iv.next101, 25
  br i1 %exitcond103.not, label %.preheader80, label %.preheader82, !llvm.loop !55

.preheader79:                                     ; preds = %.preheader80, %87
  %indvars.iv108 = phi i64 [ 0, %.preheader80 ], [ %indvars.iv.next109, %87 ]
  %.391 = phi i32 [ 0, %.preheader80 ], [ %.4, %87 ]
  %72 = add nuw nsw i64 %indvars.iv108, 3
  br label %73

73:                                               ; preds = %73, %.preheader79
  %.4 = phi i32 [ %80, %73 ], [ %.391, %.preheader79 ]
  %74 = add i32 %.4, 3
  %75 = zext i32 %74 to i64
  %76 = getelementptr inbounds nuw [260 x i8], ptr %42, i64 0, i64 %75
  %77 = load i8, ptr %76, align 1, !tbaa !14
  %78 = zext i8 %77 to i64
  %79 = icmp eq i64 %72, %78
  %80 = add i32 %.4, 1
  br i1 %79, label %73, label %.preheader, !llvm.loop !56

.preheader:                                       ; preds = %73
  %.4.tr = trunc i32 %.4 to i16
  %81 = shl i16 %.4.tr, 4
  %82 = add i16 %81, 40
  br label %83

83:                                               ; preds = %.preheader, %83
  %indvars.iv104 = phi i64 [ 0, %.preheader ], [ %indvars.iv.next105, %83 ]
  %84 = getelementptr inbounds nuw [24 x [32 x %struct.CPpmd_See]], ptr %50, i64 0, i64 %indvars.iv108, i64 %indvars.iv104
  %85 = getelementptr inbounds nuw i8, ptr %84, i64 2
  store i8 3, ptr %85, align 2, !tbaa !57
  store i16 %82, ptr %84, align 2, !tbaa !58
  %86 = getelementptr inbounds nuw i8, ptr %84, i64 3
  store i8 7, ptr %86, align 1, !tbaa !59
  %indvars.iv.next105 = add nuw nsw i64 %indvars.iv104, 1
  %exitcond107.not = icmp eq i64 %indvars.iv.next105, 32
  br i1 %exitcond107.not, label %87, label %83, !llvm.loop !60

87:                                               ; preds = %83
  %indvars.iv.next109 = add nuw nsw i64 %indvars.iv108, 1
  %exitcond111.not = icmp eq i64 %indvars.iv.next109, 24
  br i1 %exitcond111.not, label %88, label %.preheader79, !llvm.loop !61

88:                                               ; preds = %87
  ret void
}